target datalayout = "e-m:e-p270:32:32-p271:32:32-p272:64:64-i64:64-i128:128-f80:128-n8:16:32:64-S128"
target triple = "x86_64-pc-linux-gnu"

%struct.Vec_Ptr_t_ = type { i32, i32, ptr }
%struct.Vec_Wrd_t_ = type { i32, i32, ptr }

; Function Attrs: nounwind uwtable
define internal void @Vec_WrdReverseOrder(ptr noundef %0) #0 {
  %2 = alloca ptr, align 8
  %3 = alloca i64, align 8
  %4 = alloca i32, align 4
  store ptr %0, ptr %2, align 8
  store i32 0, ptr %4, align 4
  br label %5

5:                                                ; preds = %50, %1
  %6 = load i32, ptr %4, align 4
  %7 = load ptr, ptr %2, align 8
  %8 = getelementptr inbounds %struct.Vec_Wrd_t_, ptr %7, i32 0, i32 1
  %9 = load i32, ptr %8, align 4
  %10 = sdiv i32 %9, 2
  %11 = icmp slt i32 %6, %10
  br i1 %11, label %12, label %53

12:                                               ; preds = %5
  %13 = load ptr, ptr %2, align 8
  %14 = getelementptr inbounds %struct.Vec_Wrd_t_, ptr %13, i32 0, i32 2
  %15 = load ptr, ptr %14, align 8
  %16 = load i32, ptr %4, align 4
  %17 = sext i32 %16 to i64
  %18 = getelementptr inbounds i64, ptr %15, i64 %17
  %19 = load i64, ptr %18, align 8
  store i64 %19, ptr %3, align 8
  %20 = load ptr, ptr %2, align 8
  %21 = getelementptr inbounds %struct.Vec_Wrd_t_, ptr %20, i32 0, i32 2
  %22 = load ptr, ptr %21, align 8
  %23 = load ptr, ptr %2, align 8
  %24 = getelementptr inbounds %struct.Vec_Wrd_t_, ptr %23, i32 0, i32 1
  %25 = load i32, ptr %24, align 4
  %26 = sub nsw i32 %25, 1
  %27 = load i32, ptr %4, align 4
  %28 = sub nsw i32 %26, %27
  %29 = sext i32 %28 to i64
  %30 = getelementptr inbounds i64, ptr %22, i64 %29
  %31 = load i64, ptr %30, align 8
  %32 = load ptr, ptr %2, align 8
  %33 = getelementptr inbounds %struct.Vec_Wrd_t_, ptr %32, i32 0, i32 2
  %34 = load ptr, ptr %33, align 8
  %35 = load i32, ptr %4, align 4
  %36 = sext i32 %35 to i64
  %37 = getelementptr inbounds i64, ptr %34, i64 %36
  store i64 %31, ptr %37, align 8
  %38 = load i64, ptr %3, align 8
  %39 = load ptr, ptr %2, align 8
  %40 = getelementptr inbounds %struct.Vec_Wrd_t_, ptr %39, i32 0, i32 2
  %41 = load ptr, ptr %40, align 8
  %42 = load ptr, ptr %2, align 8
  %43 = getelementptr inbounds %struct.Vec_Wrd_t_, ptr %42, i32 0, i32 1
  %44 = load i32, ptr %43, align 4
  %45 = sub nsw i32 %44, 1
  %46 = load i32, ptr %4, align 4
  %47 = sub nsw i32 %45, %46
  %48 = sext i32 %47 to i64
  %49 = getelementptr inbounds i64, ptr %41, i64 %48
  store i64 %38, ptr %49, align 8
  br label %50

50:                                               ; preds = %12
  %51 = load i32, ptr %4, align 4
  %52 = add nsw i32 %51, 1
  store i32 %52, ptr %4, align 4
  br label %5, !llvm.loop !33

53:                                               ; preds = %5
  ret void
}

; Function Attrs: nounwind uwtable
define internal void @Vec_WrdSelectSortCost2(ptr noundef %0, i32 noundef %1, ptr noundef %2) #0 {
  %4 = alloca ptr, align 8
  %5 = alloca i32, align 4
  %6 = alloca ptr, align 8
  %7 = alloca i32, align 4
  %8 = alloca i32, align 4
  %9 = alloca i32, align 4
  %10 = alloca i64, align 8
  %11 = alloca i64, align 8
  store ptr %0, ptr %4, align 8
  store i32 %1, ptr %5, align 4
  store ptr %2, ptr %6, align 8
  store i32 0, ptr %7, align 4
  br label %12

12:                                               ; preds = %82, %3
  %13 = load i32, ptr %7, align 4
  %14 = load i32, ptr %5, align 4
  %15 = sub nsw i32 %14, 1
  %16 = icmp slt i32 %13, %15
  br i1 %16, label %17, label %85

17:                                               ; preds = %12
  %18 = load i32, ptr %7, align 4
  store i32 %18, ptr %9, align 4
  %19 = load i32, ptr %7, align 4
  %20 = add nsw i32 %19, 1
  store i32 %20, ptr %8, align 4
  br label %21

21:                                               ; preds = %40, %17
  %22 = load i32, ptr %8, align 4
  %23 = load i32, ptr %5, align 4
  %24 = icmp slt i32 %22, %23
  br i1 %24, label %25, label %43

25:                                               ; preds = %21
  %26 = load ptr, ptr %6, align 8
  %27 = load i32, ptr %8, align 4
  %28 = sext i32 %27 to i64
  %29 = getelementptr inbounds i64, ptr %26, i64 %28
  %30 = load i64, ptr %29, align 8
  %31 = load ptr, ptr %6, align 8
  %32 = load i32, ptr %9, align 4
  %33 = sext i32 %32 to i64
  %34 = getelementptr inbounds i64, ptr %31, i64 %33
  %35 = load i64, ptr %34, align 8
  %36 = icmp ult i64 %30, %35
  br i1 %36, label %37, label %39

37:                                               ; preds = %25
  %38 = load i32, ptr %8, align 4
  store i32 %38, ptr %9, align 4
  br label %39

39:                                               ; preds = %37, %25
  br label %40

40:                                               ; preds = %39
  %41 = load i32, ptr %8, align 4
  %42 = add nsw i32 %41, 1
  store i32 %42, ptr %8, align 4
  br label %21, !llvm.loop !31

43:                                               ; preds = %21
  %44 = load ptr, ptr %4, align 8
  %45 = load i32, ptr %7, align 4
  %46 = sext i32 %45 to i64
  %47 = getelementptr inbounds i64, ptr %44, i64 %46
  %48 = load i64, ptr %47, align 8
  store i64 %48, ptr %10, align 8
  %49 = load ptr, ptr %4, align 8
  %50 = load i32, ptr %9, align 4
  %51 = sext i32 %50 to i64
  %52 = getelementptr inbounds i64, ptr %49, i64 %51
  %53 = load i64, ptr %52, align 8
  %54 = load ptr, ptr %4, align 8
  %55 = load i32, ptr %7, align 4
  %56 = sext i32 %55 to i64
  %57 = getelementptr inbounds i64, ptr %54, i64 %56
  store i64 %53, ptr %57, align 8
  %58 = load i64, ptr %10, align 8
  %59 = load ptr, ptr %4, align 8
  %60 = load i32, ptr %9, align 4
  %61 = sext i32 %60 to i64
  %62 = getelementptr inbounds i64, ptr %59, i64 %61
  store i64 %58, ptr %62, align 8
  %63 = load ptr, ptr %6, align 8
  %64 = load i32, ptr %7, align 4
  %65 = sext i32 %64 to i64
  %66 = getelementptr inbounds i64, ptr %63, i64 %65
  %67 = load i64, ptr %66, align 8
  store i64 %67, ptr %11, align 8
  %68 = load ptr, ptr %6, align 8
  %69 = load i32, ptr %9, align 4
  %70 = sext i32 %69 to i64
  %71 = getelementptr inbounds i64, ptr %68, i64 %70
  %72 = load i64, ptr %71, align 8
  %73 = load ptr, ptr %6, align 8
  %74 = load i32, ptr %7, align 4
  %75 = sext i32 %74 to i64
  %76 = getelementptr inbounds i64, ptr %73, i64 %75
  store i64 %72, ptr %76, align 8
  %77 = load i64, ptr %11, align 8
  %78 = load ptr, ptr %6, align 8
  %79 = load i32, ptr %9, align 4
  %80 = sext i32 %79 to i64
  %81 = getelementptr inbounds i64, ptr %78, i64 %80
  store i64 %77, ptr %81, align 8
  br label %82

82:                                               ; preds = %43
  %83 = load i32, ptr %7, align 4
  %84 = add nsw i32 %83, 1
  store i32 %84, ptr %7, align 4
  br label %12, !llvm.loop !32

85:                                               ; preds = %12
  ret void
}

; Function Attrs: nounwind uwtable
define internal i32 @Vec_WrdSize(ptr noundef %0) #0 {
  %2 = alloca ptr, align 8
  store ptr %0, ptr %2, align 8
  %3 = load ptr, ptr %2, align 8
  %4 = getelementptr inbounds %struct.Vec_Wrd_t_, ptr %3, i32 0, i32 1
  %5 = load i32, ptr %4, align 4
  ret i32 %5
}

; Function Attrs: nounwind uwtable
define internal ptr @Vec_WrdArray(ptr noundef %0) #0 {
  %2 = alloca ptr, align 8
  store ptr %0, ptr %2, align 8
  %3 = load ptr, ptr %2, align 8
  %4 = getelementptr inbounds %struct.Vec_Wrd_t_, ptr %3, i32 0, i32 2
  %5 = load ptr, ptr %4, align 8
  ret ptr %5
}

; Function Attrs: nounwind uwtable
define internal ptr @Vec_PtrEntry(ptr noundef %0, i32 noundef %1) #0 {
  %3 = alloca ptr, align 8
  %4 = alloca i32, align 4
  store ptr %0, ptr %3, align 8
  store i32 %1, ptr %4, align 4
  %5 = load ptr, ptr %3, align 8
  %6 = getelementptr inbounds %struct.Vec_Ptr_t_, ptr %5, i32 0, i32 2
  %7 = load ptr, ptr %6, align 8
  %8 = load i32, ptr %4, align 4
  %9 = sext i32 %8 to i64
  %10 = getelementptr inbounds ptr, ptr %7, i64 %9
  %11 = load ptr, ptr %10, align 8
  ret ptr %11
}

; Function Attrs: nounwind uwtable
define void @Wlc_NtkPrintDistribSortOne(ptr noundef %0, ptr noundef %1, i32 noundef %2) #0 {
  %4 = alloca ptr, align 8
  %5 = alloca ptr, align 8
  %6 = alloca i32, align 4
  %7 = alloca ptr, align 8
  %8 = alloca ptr, align 8
  store ptr %0, ptr %4, align 8
  store ptr %1, ptr %5, align 8
  store i32 %2, ptr %6, align 4
  %9 = load ptr, ptr %4, align 8
  %10 = load i32, ptr %6, align 4
  %11 = call ptr @Vec_PtrEntry(ptr noundef %9, i32 noundef %10)
  store ptr %11, ptr %7, align 8
  %12 = load ptr, ptr %5, align 8
  %13 = load i32, ptr %6, align 4
  %14 = call ptr @Vec_PtrEntry(ptr noundef %12, i32 noundef %13)
  store ptr %14, ptr %8, align 8
  %15 = load ptr, ptr %7, align 8
  %16 = call ptr @Vec_WrdArray(ptr noundef %15)
  %17 = load ptr, ptr %7, align 8
  %18 = call i32 @Vec_WrdSize(ptr noundef %17)
  %19 = load ptr, ptr %8, align 8
  %20 = call ptr @Vec_WrdArray(ptr noundef %19)
  call void @Vec_WrdSelectSortCost2(ptr noundef %16, i32 noundef %18, ptr noundef %20)
  %21 = load ptr, ptr %7, align 8
  call void @Vec_WrdReverseOrder(ptr noundef %21)
  %22 = load ptr, ptr %8, align 8
  call void @Vec_WrdReverseOrder(ptr noundef %22)
  ret void
}