; Function Attrs: nofree norecurse nosync nounwind memory(readwrite, inaccessiblemem: none) uwtable
define void @Wlc_NtkPrintDistribSortOne(ptr noundef readonly captures(none) %0, ptr noundef readonly captures(none) %1, i32 noundef %2) local_unnamed_addr #14 {
  %4 = getelementptr i8, ptr %0, i64 8
  %.val = load ptr, ptr %4, align 8
  %5 = sext i32 %2 to i64
  %6 = getelementptr inbounds ptr, ptr %.val, i64 %5
  %7 = load ptr, ptr %6, align 8
  %8 = getelementptr i8, ptr %1, i64 8
  %.val8 = load ptr, ptr %8, align 8
  %9 = getelementptr inbounds ptr, ptr %.val8, i64 %5
  %10 = load ptr, ptr %9, align 8
  %11 = getelementptr i8, ptr %7, i64 8
  %.val9 = load ptr, ptr %11, align 8
  %12 = getelementptr i8, ptr %7, i64 4
  %.val11 = load i32, ptr %12, align 4
  %13 = getelementptr i8, ptr %10, i64 8
  %.val10 = load ptr, ptr %13, align 8
  %14 = icmp sgt i32 %.val11, 1
  br i1 %14, label %.lr.ph36.preheader.i, label %Vec_WrdReverseOrder.exit

.lr.ph36.preheader.i:                             ; preds = %3
  %15 = add nsw i32 %.val11, -1
  %wide.trip.count44.i = zext nneg i32 %15 to i64
  %wide.trip.count.i = zext nneg i32 %.val11 to i64
  br label %.lr.ph.preheader.i

.lr.ph.preheader.i:                               ; preds = %._crit_edge.i, %.lr.ph36.preheader.i
  %indvars.iv41.i = phi i64 [ 0, %.lr.ph36.preheader.i ], [ %indvars.iv.next42.i, %._crit_edge.i ]
  %indvars.iv.i = phi i64 [ 1, %.lr.ph36.preheader.i ], [ %indvars.iv.next.i, %._crit_edge.i ]
  %16 = trunc nuw nsw i64 %indvars.iv41.i to i32
  br label %.lr.ph.i

.lr.ph.i:                                         ; preds = %.lr.ph.i, %.lr.ph.preheader.i
  %indvars.iv38.i = phi i64 [ %indvars.iv.i, %.lr.ph.preheader.i ], [ %indvars.iv.next39.i, %.lr.ph.i ]
  %.03132.i = phi i32 [ %16, %.lr.ph.preheader.i ], [ %spec.select.i, %.lr.ph.i ]
  %17 = getelementptr inbounds nuw i64, ptr %.val10, i64 %indvars.iv38.i
  %18 = load i64, ptr %17, align 8
  %19 = sext i32 %.03132.i to i64
  %20 = getelementptr inbounds i64, ptr %.val10, i64 %19
  %21 = load i64, ptr %20, align 8
  %22 = icmp ult i64 %18, %21
  %23 = trunc nuw nsw i64 %indvars.iv38.i to i32
  %spec.select.i = select i1 %22, i32 %23, i32 %.03132.i
  %indvars.iv.next39.i = add nuw nsw i64 %indvars.iv38.i, 1
  %exitcond.not.i = icmp eq i64 %indvars.iv.next39.i, %wide.trip.count.i
  br i1 %exitcond.not.i, label %._crit_edge.i, label %.lr.ph.i, !llvm.loop !31

._crit_edge.i:                                    ; preds = %.lr.ph.i
  %indvars.iv.next42.i = add nuw nsw i64 %indvars.iv41.i, 1
  %24 = getelementptr inbounds nuw i64, ptr %.val9, i64 %indvars.iv41.i
  %25 = load i64, ptr %24, align 8
  %26 = sext i32 %spec.select.i to i64
  %27 = getelementptr inbounds i64, ptr %.val9, i64 %26
  %28 = load i64, ptr %27, align 8
  store i64 %28, ptr %24, align 8
  store i64 %25, ptr %27, align 8
  %29 = getelementptr inbounds nuw i64, ptr %.val10, i64 %indvars.iv41.i
  %30 = load i64, ptr %29, align 8
  %31 = getelementptr inbounds i64, ptr %.val10, i64 %26
  %32 = load i64, ptr %31, align 8
  store i64 %32, ptr %29, align 8
  store i64 %30, ptr %31, align 8
  %indvars.iv.next.i = add nuw nsw i64 %indvars.iv.i, 1
  %exitcond45.not.i = icmp eq i64 %indvars.iv.next42.i, %wide.trip.count44.i
  br i1 %exitcond45.not.i, label %Vec_WrdSelectSortCost2.exit, label %.lr.ph.preheader.i, !llvm.loop !32

Vec_WrdSelectSortCost2.exit:                      ; preds = %._crit_edge.i
  %.pr = load i32, ptr %12, align 4
  %33 = icmp sgt i32 %.pr, 1
  br i1 %33, label %.lr.ph.i13, label %Vec_WrdReverseOrder.exit

.lr.ph.i13:                                       ; preds = %Vec_WrdSelectSortCost2.exit, %.lr.ph.i13
  %indvars.iv.i14 = phi i64 [ %indvars.iv.next.i15, %.lr.ph.i13 ], [ 0, %Vec_WrdSelectSortCost2.exit ]
  %34 = phi i32 [ %49, %.lr.ph.i13 ], [ %.pr, %Vec_WrdSelectSortCost2.exit ]
  %35 = load ptr, ptr %11, align 8
  %36 = getelementptr inbounds nuw i64, ptr %35, i64 %indvars.iv.i14
  %37 = load i64, ptr %36, align 8
  %38 = trunc nuw nsw i64 %indvars.iv.i14 to i32
  %39 = xor i32 %38, -1
  %40 = add i32 %34, %39
  %41 = sext i32 %40 to i64
  %42 = getelementptr inbounds i64, ptr %35, i64 %41
  %43 = load i64, ptr %42, align 8
  store i64 %43, ptr %36, align 8
  %44 = load ptr, ptr %11, align 8
  %45 = load i32, ptr %12, align 4
  %46 = add i32 %45, %39
  %47 = sext i32 %46 to i64
  %48 = getelementptr inbounds i64, ptr %44, i64 %47
  store i64 %37, ptr %48, align 8
  %indvars.iv.next.i15 = add nuw nsw i64 %indvars.iv.i14, 1
  %49 = load i32, ptr %12, align 4
  %50 = sdiv i32 %49, 2
  %51 = sext i32 %50 to i64
  %52 = icmp slt i64 %indvars.iv.next.i15, %51
  br i1 %52, label %.lr.ph.i13, label %Vec_WrdReverseOrder.exit, !llvm.loop !33

Vec_WrdReverseOrder.exit:                         ; preds = %.lr.ph.i13, %3, %Vec_WrdSelectSortCost2.exit
  %53 = getelementptr inbounds nuw i8, ptr %10, i64 4
  %54 = load i32, ptr %53, align 4
  %55 = icmp sgt i32 %54, 1
  br i1 %55, label %.lr.ph.i17, label %Vec_WrdReverseOrder.exit20

.lr.ph.i17:                                       ; preds = %Vec_WrdReverseOrder.exit, %.lr.ph.i17
  %indvars.iv.i18 = phi i64 [ %indvars.iv.next.i19, %.lr.ph.i17 ], [ 0, %Vec_WrdReverseOrder.exit ]
  %56 = phi i32 [ %71, %.lr.ph.i17 ], [ %54, %Vec_WrdReverseOrder.exit ]
  %57 = load ptr, ptr %13, align 8
  %58 = getelementptr inbounds nuw i64, ptr %57, i64 %indvars.iv.i18
  %59 = load i64, ptr %58, align 8
  %60 = trunc nuw nsw i64 %indvars.iv.i18 to i32
  %61 = xor i32 %60, -1
  %62 = add i32 %56, %61
  %63 = sext i32 %62 to i64
  %64 = getelementptr inbounds i64, ptr %57, i64 %63
  %65 = load i64, ptr %64, align 8
  store i64 %65, ptr %58, align 8
  %66 = load ptr, ptr %13, align 8
  %67 = load i32, ptr %53, align 4
  %68 = add i32 %67, %61
  %69 = sext i32 %68 to i64
  %70 = getelementptr inbounds i64, ptr %66, i64 %69
  store i64 %59, ptr %70, align 8
  %indvars.iv.next.i19 = add nuw nsw i64 %indvars.iv.i18, 1
  %71 = load i32, ptr %53, align 4
  %72 = sdiv i32 %71, 2
  %73 = sext i32 %72 to i64
  %74 = icmp slt i64 %indvars.iv.next.i19, %73
  br i1 %74, label %.lr.ph.i17, label %Vec_WrdReverseOrder.exit20, !llvm.loop !33

Vec_WrdReverseOrder.exit20:                       ; preds = %.lr.ph.i17, %Vec_WrdReverseOrder.exit
  ret void
}